target datalayout = "e-m:e-p270:32:32-p271:32:32-p272:64:64-i64:64-i128:128-f80:128-n8:16:32:64-S128"
target triple = "x86_64-pc-linux-gnu"

%struct.redisServer = type { i32, i64, ptr, ptr, ptr, i32, i32, i32, i32, i32, ptr, ptr, ptr, ptr, ptr, i32, i32, i32, i32, i64, i32, i32, i32, i32, ptr, i32, i32, [41 x i8], i32, i64, i32, i32, i32, ptr, ptr, i32, i32, i64, ptr, ptr, ptr, ptr, [2 x i32], i32, i32, i32, i32, i32, i32, [16 x ptr], i32, ptr, ptr, i32, [8 x %struct.connListener], i32, %struct.connListener, ptr, ptr, ptr, ptr, ptr, ptr, ptr, ptr, ptr, ptr, i32, ptr, i32, ptr, [3 x %struct.pause_event], [256 x i8], ptr, i64, i32, i32, [128 x i32], i32, i32, i64, i32, i32, i32, i32, i32, i64, i64, i64, i64, i64, i64, i64, i64, i64, i64, double, i64, i64, i64, i64, i64, i64, i64, i64, i64, i64, i64, i64, i64, i64, i64, i64, i64, i64, i64, i64, i64, double, i64, i64, i64, i64, i64, ptr, i64, i64, i64, %struct.malloc_stats, i64, i64, i64, i64, i64, i64, i64, i64, i64, i64, i64, i64, double, [4 x i64], i64, i64, i64, i64, [128 x i64], [128 x i64], i64, i64, [7 x %struct.anon], i64, i64, i64, i64, i64, i64, [4 x %struct.durationStats], i32, i32, i32, i32, i32, i32, i32, i32, i32, i32, i32, i32, i64, i32, i32, i32, i32, i64, i64, i32, i32, i32, i32, i32, ptr, [3 x %struct.clientBufferLimitsConfig], i32, i32, i32, ptr, i32, i32, i32, i32, i32, i32, ptr, ptr, i32, i32, i64, i64, i64, i64, i64, i32, i32, ptr, i32, i32, i64, i64, i64, i64, i64, i32, i32, i64, i32, i32, i32, i32, i32, i32, i32, i32, ptr, i32, i64, i64, i64, i64, i32, ptr, i32, ptr, i32, i32, i32, i64, i64, i64, i64, i32, i32, i32, i32, i32, i32, ptr, i32, i32, ptr, i32, i32, i32, [2 x i32], i32, %struct.redisOpArray, i32, ptr, i32, ptr, i32, i32, i32, i32, i32, i32, i32, [41 x i8], [41 x i8], i64, i64, i64, i64, i32, i32, ptr, i64, i64, %struct.replDataBuf, i64, i64, i32, i32, i32, i32, i32, i32, i32, i32, i32, i64, ptr, i64, ptr, ptr, ptr, i32, i32, ptr, ptr, i32, i32, i32, i64, i64, i64, i64, ptr, ptr, i32, ptr, i64, i32, i32, i32, i64, i32, i32, i32, i32, ptr, i32, i32, [41 x i8], i64, i32, ptr, i32, i32, i64, i64, i32, i32, i32, i32, i32, i64, [3 x i32], i32, i32, i32, [10 x i32], ptr, ptr, i32, i64, ptr, ptr, i32, i32, i32, i32, i64, i64, i64, i64, i64, i64, i64, i64, i64, i64, i32, i32, i64, i64, i32, i64, i64, i64, i64, i64, ptr, ptr, i32, ptr, i32, i32, i32, i32, i64, i64, ptr, ptr, i32, i32, i32, i32, i32, ptr, ptr, ptr, i32, i32, i32, i32, i32, i32, i32, i64, i32, i32, i64, i32, i32, i32, i32, i32, i32, i32, i64, ptr, ptr, i64, ptr, i32, %struct.aclInfo, i32, i64, i32, i32, i32, %struct.redisTLSContextConfig, ptr, ptr, ptr, ptr, ptr, i64, i32, ptr, i32, i32, i32, i64, i32, ptr }
%struct.connListener = type { [16 x i32], i32, ptr, i32, i32, ptr, ptr }
%struct.pause_event = type { i32, i64 }
%struct.malloc_stats = type { i64, i64, i64, i64, i64, i64, i64, i64, i64, i64, i64 }
%struct.anon = type { i64, i64, [16 x i64], i32 }
%struct.durationStats = type { i64, i64, i64 }
%struct.clientBufferLimitsConfig = type { i64, i64, i64 }
%struct.redisOpArray = type { ptr, i32, i32 }
%struct.replDataBuf = type { ptr, i64, i64, i64, i64 }
%struct.aclInfo = type { i64, i64, i64, i64 }
%struct.redisTLSContextConfig = type { ptr, ptr, ptr, ptr, ptr, ptr, ptr, ptr, ptr, ptr, ptr, ptr, i32, i32, i32, i32 }
%struct.list = type { ptr, ptr, ptr, ptr, ptr, i64 }
%struct.client = type { i64, i64, ptr, i8, i8, i8, i8, i32, ptr, ptr, ptr, ptr, ptr, i64, i64, i32, ptr, i32, i32, ptr, i64, ptr, ptr, ptr, ptr, ptr, i32, i32, i64, ptr, i64, ptr, i64, i64, i64, i32, ptr, i64, i64, i32, i32, i32, i32, i64, i64, ptr, i64, i64, i64, i64, i64, i64, i64, i64, [41 x i8], i32, ptr, i32, i32, i64, %struct.multiState, %struct.blockingState, i64, ptr, ptr, ptr, ptr, ptr, ptr, ptr, ptr, ptr, ptr, ptr, ptr, ptr, ptr, i64, ptr, i64, i32, ptr, ptr, ptr, i64, %struct.listNode, i64, i64, i32, i64, ptr }
%struct.multiState = type { ptr, i32, i32, i32, i64, i32 }
%struct.blockingState = type { i32, i64, i32, ptr, i32, i32, i64, ptr, ptr, i64 }
%struct.listNode = type { ptr, ptr, ptr }
%struct.replBufBlock = type { i32, i64, i64, i64, i64, [0 x i8] }

@server = external global %struct.redisServer, align 8

; Function Attrs: inlinehint nounwind uwtable
define internal i32 @clientTypeIsSlave(ptr noundef %0) #4 {
  %2 = alloca i32, align 4
  %3 = alloca ptr, align 8
  store ptr %0, ptr %3, align 8, !tbaa !24
  %4 = load ptr, ptr %3, align 8, !tbaa !24
  %5 = getelementptr inbounds nuw %struct.client, ptr %4, i32 0, i32 1
  %6 = load i64, ptr %5, align 8, !tbaa !104
  %7 = and i64 %6, 1
  %8 = icmp ne i64 %7, 0
  br i1 %8, label %9, label %16

9:                                                ; preds = %1
  %10 = load ptr, ptr %3, align 8, !tbaa !24
  %11 = getelementptr inbounds nuw %struct.client, ptr %10, i32 0, i32 1
  %12 = load i64, ptr %11, align 8, !tbaa !104
  %13 = and i64 %12, 4
  %14 = icmp ne i64 %13, 0
  %15 = xor i1 %14, true
  br label %16

16:                                               ; preds = %9, %1
  %17 = phi i1 [ false, %1 ], [ %15, %9 ]
  %18 = xor i1 %17, true
  %19 = xor i1 %18, true
  %20 = zext i1 %19 to i32
  %21 = sext i32 %20 to i64
  %22 = call i64 @llvm.expect.i64(i64 %21, i64 0)
  %23 = icmp ne i64 %22, 0
  br i1 %23, label %24, label %25

24:                                               ; preds = %16
  store i32 1, ptr %2, align 4
  br label %26

25:                                               ; preds = %16
  store i32 0, ptr %2, align 4
  br label %26

26:                                               ; preds = %25, %24
  %27 = load i32, ptr %2, align 4
  ret i32 %27
}

; Function Attrs: nounwind uwtable
define dso_local i32 @getClientType(ptr noundef %0) #0 {
  %2 = alloca i32, align 4
  %3 = alloca ptr, align 8
  store ptr %0, ptr %3, align 8, !tbaa !24
  %4 = load ptr, ptr %3, align 8, !tbaa !24
  %5 = getelementptr inbounds nuw %struct.client, ptr %4, i32 0, i32 1
  %6 = load i64, ptr %5, align 8, !tbaa !104
  %7 = and i64 %6, 2
  %8 = icmp ne i64 %7, 0
  br i1 %8, label %9, label %10

9:                                                ; preds = %1
  store i32 3, ptr %2, align 4
  br label %31

10:                                               ; preds = %1
  %11 = load ptr, ptr %3, align 8, !tbaa !24
  %12 = getelementptr inbounds nuw %struct.client, ptr %11, i32 0, i32 1
  %13 = load i64, ptr %12, align 8, !tbaa !104
  %14 = and i64 %13, 1
  %15 = icmp ne i64 %14, 0
  br i1 %15, label %16, label %23

16:                                               ; preds = %10
  %17 = load ptr, ptr %3, align 8, !tbaa !24
  %18 = getelementptr inbounds nuw %struct.client, ptr %17, i32 0, i32 1
  %19 = load i64, ptr %18, align 8, !tbaa !104
  %20 = and i64 %19, 4
  %21 = icmp ne i64 %20, 0
  br i1 %21, label %23, label %22

22:                                               ; preds = %16
  store i32 1, ptr %2, align 4
  br label %31

23:                                               ; preds = %16, %10
  %24 = load ptr, ptr %3, align 8, !tbaa !24
  %25 = getelementptr inbounds nuw %struct.client, ptr %24, i32 0, i32 1
  %26 = load i64, ptr %25, align 8, !tbaa !104
  %27 = and i64 %26, 262144
  %28 = icmp ne i64 %27, 0
  br i1 %28, label %29, label %30

29:                                               ; preds = %23
  store i32 2, ptr %2, align 4
  br label %31

30:                                               ; preds = %23
  store i32 0, ptr %2, align 4
  br label %31

31:                                               ; preds = %30, %29, %22, %9
  %32 = load i32, ptr %2, align 4
  ret i32 %32
}

; Function Attrs: nounwind uwtable
define dso_local i64 @getClientOutputBufferMemoryUsage(ptr noundef %0) #0 {
  %2 = alloca i64, align 8
  %3 = alloca ptr, align 8
  %4 = alloca i64, align 8
  %5 = alloca i64, align 8
  %6 = alloca i64, align 8
  %7 = alloca ptr, align 8
  %8 = alloca ptr, align 8
  %9 = alloca i64, align 8
  store ptr %0, ptr %3, align 8, !tbaa !24
  %10 = load ptr, ptr %3, align 8, !tbaa !24
  %11 = call i32 @clientTypeIsSlave(ptr noundef %10)
  %12 = icmp ne i32 %11, 0
  %13 = xor i1 %12, true
  %14 = xor i1 %13, true
  %15 = zext i1 %14 to i32
  %16 = sext i32 %15 to i64
  %17 = call i64 @llvm.expect.i64(i64 %16, i64 0)
  %18 = icmp ne i64 %17, 0
  br i1 %18, label %19, label %60

19:                                               ; preds = %1
  call void @llvm.lifetime.start.p0(i64 8, ptr %4) #16
  store i64 0, ptr %4, align 8, !tbaa !20
  call void @llvm.lifetime.start.p0(i64 8, ptr %5) #16
  store i64 0, ptr %5, align 8, !tbaa !20
  call void @llvm.lifetime.start.p0(i64 8, ptr %6) #16
  store i64 64, ptr %6, align 8, !tbaa !20
  %20 = load ptr, ptr %3, align 8, !tbaa !24
  %21 = getelementptr inbounds nuw %struct.client, ptr %20, i32 0, i32 83
  %22 = load ptr, ptr %21, align 8, !tbaa !84
  %23 = icmp ne ptr %22, null
  br i1 %23, label %24, label %54

24:                                               ; preds = %19
  call void @llvm.lifetime.start.p0(i64 8, ptr %7) #16
  %25 = load ptr, ptr getelementptr inbounds nuw (%struct.redisServer, ptr @server, i32 0, i32 293), align 8, !tbaa !208
  %26 = getelementptr inbounds nuw %struct.list, ptr %25, i32 0, i32 1
  %27 = load ptr, ptr %26, align 8, !tbaa !52
  %28 = getelementptr inbounds nuw %struct.listNode, ptr %27, i32 0, i32 2
  %29 = load ptr, ptr %28, align 8, !tbaa !168
  store ptr %29, ptr %7, align 8, !tbaa !209
  call void @llvm.lifetime.start.p0(i64 8, ptr %8) #16
  %30 = load ptr, ptr %3, align 8, !tbaa !24
  %31 = getelementptr inbounds nuw %struct.client, ptr %30, i32 0, i32 83
  %32 = load ptr, ptr %31, align 8, !tbaa !84
  %33 = getelementptr inbounds nuw %struct.listNode, ptr %32, i32 0, i32 2
  %34 = load ptr, ptr %33, align 8, !tbaa !168
  store ptr %34, ptr %8, align 8, !tbaa !209
  %35 = load ptr, ptr %7, align 8, !tbaa !209
  %36 = getelementptr inbounds nuw %struct.replBufBlock, ptr %35, i32 0, i32 2
  %37 = load i64, ptr %36, align 8, !tbaa !155
  %38 = load ptr, ptr %7, align 8, !tbaa !209
  %39 = getelementptr inbounds nuw %struct.replBufBlock, ptr %38, i32 0, i32 3
  %40 = load i64, ptr %39, align 8, !tbaa !20
  %41 = add i64 %37, %40
  %42 = load ptr, ptr %8, align 8, !tbaa !209
  %43 = getelementptr inbounds nuw %struct.replBufBlock, ptr %42, i32 0, i32 2
  %44 = load i64, ptr %43, align 8, !tbaa !155
  %45 = sub i64 %41, %44
  store i64 %45, ptr %4, align 8, !tbaa !20
  %46 = load ptr, ptr %7, align 8, !tbaa !209
  %47 = getelementptr inbounds nuw %struct.replBufBlock, ptr %46, i32 0, i32 1
  %48 = load i64, ptr %47, align 8, !tbaa !155
  %49 = load ptr, ptr %8, align 8, !tbaa !209
  %50 = getelementptr inbounds nuw %struct.replBufBlock, ptr %49, i32 0, i32 1
  %51 = load i64, ptr %50, align 8, !tbaa !155
  %52 = sub nsw i64 %48, %51
  %53 = add nsw i64 %52, 1
  store i64 %53, ptr %5, align 8, !tbaa !20
  call void @llvm.lifetime.end.p0(i64 8, ptr %8) #16
  call void @llvm.lifetime.end.p0(i64 8, ptr %7) #16
  br label %54

54:                                               ; preds = %24, %19
  %55 = load i64, ptr %4, align 8, !tbaa !20
  %56 = load i64, ptr %6, align 8, !tbaa !20
  %57 = load i64, ptr %5, align 8, !tbaa !20
  %58 = mul i64 %56, %57
  %59 = add i64 %55, %58
  store i64 %59, ptr %2, align 8
  call void @llvm.lifetime.end.p0(i64 8, ptr %6) #16
  call void @llvm.lifetime.end.p0(i64 8, ptr %5) #16
  call void @llvm.lifetime.end.p0(i64 8, ptr %4) #16
  br label %72

60:                                               ; preds = %1
  call void @llvm.lifetime.start.p0(i64 8, ptr %9) #16
  store i64 40, ptr %9, align 8, !tbaa !20
  %61 = load ptr, ptr %3, align 8, !tbaa !24
  %62 = getelementptr inbounds nuw %struct.client, ptr %61, i32 0, i32 30
  %63 = load i64, ptr %62, align 8, !tbaa !127
  %64 = load i64, ptr %9, align 8, !tbaa !20
  %65 = load ptr, ptr %3, align 8, !tbaa !24
  %66 = getelementptr inbounds nuw %struct.client, ptr %65, i32 0, i32 29
  %67 = load ptr, ptr %66, align 8, !tbaa !125
  %68 = getelementptr inbounds nuw %struct.list, ptr %67, i32 0, i32 5
  %69 = load i64, ptr %68, align 8, !tbaa !182
  %70 = mul i64 %64, %69
  %71 = add i64 %63, %70
  store i64 %71, ptr %2, align 8
  call void @llvm.lifetime.end.p0(i64 8, ptr %9) #16
  br label %72

72:                                               ; preds = %60, %54
  %73 = load i64, ptr %2, align 8
  ret i64 %73
}

; Function Attrs: nounwind uwtable
define dso_local i32 @checkClientOutputBufferLimits(ptr noundef %0) #0 {
  %2 = alloca ptr, align 8
  %3 = alloca i32, align 4
  %4 = alloca i32, align 4
  %5 = alloca i32, align 4
  %6 = alloca i64, align 8
  %7 = alloca i64, align 8
  %8 = alloca i64, align 8
  store ptr %0, ptr %2, align 8, !tbaa !24
  call void @llvm.lifetime.start.p0(i64 4, ptr %3) #16
  store i32 0, ptr %3, align 4, !tbaa !19
  call void @llvm.lifetime.start.p0(i64 4, ptr %4) #16
  store i32 0, ptr %4, align 4, !tbaa !19
  call void @llvm.lifetime.start.p0(i64 4, ptr %5) #16
  call void @llvm.lifetime.start.p0(i64 8, ptr %6) #16
  %9 = load ptr, ptr %2, align 8, !tbaa !24
  %10 = call i64 @getClientOutputBufferMemoryUsage(ptr noundef %9)
  store i64 %10, ptr %6, align 8, !tbaa !20
  %11 = load ptr, ptr %2, align 8, !tbaa !24
  %12 = call i32 @getClientType(ptr noundef %11)
  store i32 %12, ptr %5, align 4, !tbaa !19
  %13 = load i32, ptr %5, align 4, !tbaa !19
  %14 = icmp eq i32 %13, 3
  br i1 %14, label %15, label %16

15:                                               ; preds = %1
  store i32 0, ptr %5, align 4, !tbaa !19
  br label %16

16:                                               ; preds = %15, %1
  call void @llvm.lifetime.start.p0(i64 8, ptr %7) #16
  %17 = load i32, ptr %5, align 4, !tbaa !19
  %18 = sext i32 %17 to i64
  %19 = getelementptr inbounds [3 x %struct.clientBufferLimitsConfig], ptr getelementptr inbounds nuw (%struct.redisServer, ptr @server, i32 0, i32 184), i64 0, i64 %18
  %20 = getelementptr inbounds nuw %struct.clientBufferLimitsConfig, ptr %19, i32 0, i32 0
  %21 = load i64, ptr %20, align 8, !tbaa !306
  store i64 %21, ptr %7, align 8, !tbaa !20
  %22 = load i32, ptr %5, align 4, !tbaa !19
  %23 = icmp eq i32 %22, 1
  br i1 %23, label %24, label %33

24:                                               ; preds = %16
  %25 = load i64, ptr %7, align 8, !tbaa !20
  %26 = icmp ne i64 %25, 0
  br i1 %26, label %27, label %33

27:                                               ; preds = %24
  %28 = load i64, ptr %7, align 8, !tbaa !20
  %29 = load i64, ptr getelementptr inbounds nuw (%struct.redisServer, ptr @server, i32 0, i32 278), align 8, !tbaa !308
  %30 = icmp slt i64 %28, %29
  br i1 %30, label %31, label %33

31:                                               ; preds = %27
  %32 = load i64, ptr getelementptr inbounds nuw (%struct.redisServer, ptr @server, i32 0, i32 278), align 8, !tbaa !308
  store i64 %32, ptr %7, align 8, !tbaa !20
  br label %33

33:                                               ; preds = %31, %27, %24, %16
  %34 = load i32, ptr %5, align 4, !tbaa !19
  %35 = sext i32 %34 to i64
  %36 = getelementptr inbounds [3 x %struct.clientBufferLimitsConfig], ptr getelementptr inbounds nuw (%struct.redisServer, ptr @server, i32 0, i32 184), i64 0, i64 %35
  %37 = getelementptr inbounds nuw %struct.clientBufferLimitsConfig, ptr %36, i32 0, i32 0
  %38 = load i64, ptr %37, align 8, !tbaa !306
  %39 = icmp ne i64 %38, 0
  br i1 %39, label %40, label %45

40:                                               ; preds = %33
  %41 = load i64, ptr %6, align 8, !tbaa !20
  %42 = load i64, ptr %7, align 8, !tbaa !20
  %43 = icmp uge i64 %41, %42
  br i1 %43, label %44, label %45

44:                                               ; preds = %40
  store i32 1, ptr %4, align 4, !tbaa !19
  br label %45

45:                                               ; preds = %44, %40, %33
  %46 = load i32, ptr %5, align 4, !tbaa !19
  %47 = sext i32 %46 to i64
  %48 = getelementptr inbounds [3 x %struct.clientBufferLimitsConfig], ptr getelementptr inbounds nuw (%struct.redisServer, ptr @server, i32 0, i32 184), i64 0, i64 %47
  %49 = getelementptr inbounds nuw %struct.clientBufferLimitsConfig, ptr %48, i32 0, i32 1
  %50 = load i64, ptr %49, align 8, !tbaa !309
  %51 = icmp ne i64 %50, 0
  br i1 %51, label %52, label %61

52:                                               ; preds = %45
  %53 = load i64, ptr %6, align 8, !tbaa !20
  %54 = load i32, ptr %5, align 4, !tbaa !19
  %55 = sext i32 %54 to i64
  %56 = getelementptr inbounds [3 x %struct.clientBufferLimitsConfig], ptr getelementptr inbounds nuw (%struct.redisServer, ptr @server, i32 0, i32 184), i64 0, i64 %55
  %57 = getelementptr inbounds nuw %struct.clientBufferLimitsConfig, ptr %56, i32 0, i32 1
  %58 = load i64, ptr %57, align 8, !tbaa !309
  %59 = icmp uge i64 %53, %58
  br i1 %59, label %60, label %61

60:                                               ; preds = %52
  store i32 1, ptr %3, align 4, !tbaa !19
  br label %61

61:                                               ; preds = %60, %52, %45
  %62 = load i32, ptr %3, align 4, !tbaa !19
  %63 = icmp ne i32 %62, 0
  br i1 %63, label %64, label %89

64:                                               ; preds = %61
  %65 = load ptr, ptr %2, align 8, !tbaa !24
  %66 = getelementptr inbounds nuw %struct.client, ptr %65, i32 0, i32 38
  %67 = load i64, ptr %66, align 8, !tbaa !128
  %68 = icmp eq i64 %67, 0
  br i1 %68, label %69, label %73

69:                                               ; preds = %64
  %70 = load atomic i64, ptr getelementptr inbounds nuw (%struct.redisServer, ptr @server, i32 0, i32 366) seq_cst, align 8, !tbaa !82
  %71 = load ptr, ptr %2, align 8, !tbaa !24
  %72 = getelementptr inbounds nuw %struct.client, ptr %71, i32 0, i32 38
  store i64 %70, ptr %72, align 8, !tbaa !128
  store i32 0, ptr %3, align 4, !tbaa !19
  br label %88

73:                                               ; preds = %64
  call void @llvm.lifetime.start.p0(i64 8, ptr %8) #16
  %74 = load atomic i64, ptr getelementptr inbounds nuw (%struct.redisServer, ptr @server, i32 0, i32 366) seq_cst, align 8, !tbaa !82
  %75 = load ptr, ptr %2, align 8, !tbaa !24
  %76 = getelementptr inbounds nuw %struct.client, ptr %75, i32 0, i32 38
  %77 = load i64, ptr %76, align 8, !tbaa !128
  %78 = sub nsw i64 %74, %77
  store i64 %78, ptr %8, align 8, !tbaa !20
  %79 = load i64, ptr %8, align 8, !tbaa !20
  %80 = load i32, ptr %5, align 4, !tbaa !19
  %81 = sext i32 %80 to i64
  %82 = getelementptr inbounds [3 x %struct.clientBufferLimitsConfig], ptr getelementptr inbounds nuw (%struct.redisServer, ptr @server, i32 0, i32 184), i64 0, i64 %81
  %83 = getelementptr inbounds nuw %struct.clientBufferLimitsConfig, ptr %82, i32 0, i32 2
  %84 = load i64, ptr %83, align 8, !tbaa !310
  %85 = icmp sle i64 %79, %84
  br i1 %85, label %86, label %87

86:                                               ; preds = %73
  store i32 0, ptr %3, align 4, !tbaa !19
  br label %87

87:                                               ; preds = %86, %73
  call void @llvm.lifetime.end.p0(i64 8, ptr %8) #16
  br label %88

88:                                               ; preds = %87, %69
  br label %92

89:                                               ; preds = %61
  %90 = load ptr, ptr %2, align 8, !tbaa !24
  %91 = getelementptr inbounds nuw %struct.client, ptr %90, i32 0, i32 38
  store i64 0, ptr %91, align 8, !tbaa !128
  br label %92

92:                                               ; preds = %89, %88
  %93 = load i32, ptr %3, align 4, !tbaa !19
  %94 = icmp ne i32 %93, 0
  br i1 %94, label %98, label %95

95:                                               ; preds = %92
  %96 = load i32, ptr %4, align 4, !tbaa !19
  %97 = icmp ne i32 %96, 0
  br label %98

98:                                               ; preds = %95, %92
  %99 = phi i1 [ true, %92 ], [ %97, %95 ]
  %100 = zext i1 %99 to i32
  call void @llvm.lifetime.end.p0(i64 8, ptr %7) #16
  call void @llvm.lifetime.end.p0(i64 8, ptr %6) #16
  call void @llvm.lifetime.end.p0(i64 4, ptr %5) #16
  call void @llvm.lifetime.end.p0(i64 4, ptr %4) #16
  call void @llvm.lifetime.end.p0(i64 4, ptr %3) #16
  ret i32 %100
}