; Function Attrs: mustprogress nofree norecurse nounwind willreturn memory(readwrite, inaccessiblemem: none) uwtable
define dso_local range(i32 0, 2) i32 @checkClientOutputBufferLimits(ptr noundef captures(none) %0) local_unnamed_addr #23 {
  %2 = getelementptr i8, ptr %0, i64 8
  %.val.i = load i64, ptr %2, align 8, !tbaa !86
  %3 = and i64 %.val.i, 5
  %.not.i = icmp eq i64 %3, 1
  br i1 %.not.i, label %4, label %getClientOutputBufferMemoryUsage.exit.thread, !prof !121

4:                                                ; preds = %1
  %5 = getelementptr inbounds nuw i8, ptr %0, i64 720
  %6 = load ptr, ptr %5, align 8, !tbaa !161
  %.not17.i = icmp eq ptr %6, null
  br i1 %.not17.i, label %getClientOutputBufferMemoryUsage.exit, label %7

7:                                                ; preds = %4
  %8 = load ptr, ptr getelementptr inbounds nuw (i8, ptr @server, i64 7232), align 8, !tbaa !162
  %9 = getelementptr inbounds nuw i8, ptr %8, i64 8
  %10 = load ptr, ptr %9, align 8, !tbaa !46
  %11 = getelementptr inbounds nuw i8, ptr %10, i64 16
  %12 = load ptr, ptr %11, align 8, !tbaa !123
  %13 = getelementptr inbounds nuw i8, ptr %6, i64 16
  %14 = load ptr, ptr %13, align 8, !tbaa !123
  %15 = getelementptr inbounds nuw i8, ptr %12, i64 16
  %16 = load i64, ptr %15, align 8, !tbaa !163
  %17 = getelementptr inbounds nuw i8, ptr %12, i64 24
  %18 = load i64, ptr %17, align 8, !tbaa !16
  %19 = getelementptr inbounds nuw i8, ptr %14, i64 16
  %20 = load i64, ptr %19, align 8, !tbaa !163
  %21 = getelementptr inbounds nuw i8, ptr %12, i64 8
  %22 = load i64, ptr %21, align 8, !tbaa !163
  %23 = getelementptr inbounds nuw i8, ptr %14, i64 8
  %24 = load i64, ptr %23, align 8, !tbaa !163
  %25 = sub nsw i64 %22, %24
  %26 = shl i64 %25, 6
  %27 = add i64 %16, 64
  %28 = add i64 %27, %18
  %29 = sub i64 %28, %20
  %30 = add i64 %29, %26
  br label %getClientOutputBufferMemoryUsage.exit

getClientOutputBufferMemoryUsage.exit:            ; preds = %4, %7
  %.0.i = phi i64 [ %30, %7 ], [ 0, %4 ]
  %31 = and i64 %.val.i, 2
  %.not.i35.not = icmp eq i64 %31, 0
  %.mux = zext i1 %.not.i35.not to i32
  br label %getClientType.exit

getClientOutputBufferMemoryUsage.exit.thread:     ; preds = %1
  %32 = getelementptr inbounds nuw i8, ptr %0, i64 192
  %33 = load i64, ptr %32, align 8, !tbaa !124
  %34 = getelementptr inbounds nuw i8, ptr %0, i64 184
  %35 = load ptr, ptr %34, align 8, !tbaa !96
  %36 = getelementptr inbounds nuw i8, ptr %35, i64 40
  %37 = load i64, ptr %36, align 8, !tbaa !122
  %38 = mul i64 %37, 40
  %39 = add i64 %38, %33
  %40 = and i64 %.val.i, 2
  %.not.i3538 = icmp eq i64 %40, 0
  br i1 %.not.i3538, label %.thread, label %getClientType.exit

.thread:                                          ; preds = %getClientOutputBufferMemoryUsage.exit.thread
  %41 = trunc i64 %.val.i to i32
  %42 = lshr i32 %41, 17
  %..i = and i32 %42, 2
  br label %getClientType.exit

getClientType.exit:                               ; preds = %getClientOutputBufferMemoryUsage.exit, %getClientOutputBufferMemoryUsage.exit.thread, %.thread
  %.0.i3946 = phi i64 [ %39, %.thread ], [ %39, %getClientOutputBufferMemoryUsage.exit.thread ], [ %.0.i, %getClientOutputBufferMemoryUsage.exit ]
  %43 = phi i32 [ %..i, %.thread ], [ 0, %getClientOutputBufferMemoryUsage.exit.thread ], [ %.mux, %getClientOutputBufferMemoryUsage.exit ]
  %44 = freeze i64 %.0.i3946
  %45 = zext nneg i32 %43 to i64
  %46 = getelementptr inbounds nuw [3 x %struct.clientBufferLimitsConfig], ptr getelementptr inbounds nuw (i8, ptr @server, i64 6408), i64 0, i64 %45
  %47 = load i64, ptr %46, align 8, !tbaa !264
  %48 = load i64, ptr getelementptr inbounds nuw (i8, ptr @server, i64 7112), align 8
  %49 = getelementptr inbounds nuw i8, ptr %46, i64 8
  %50 = load i64, ptr %49, align 8, !tbaa !266
  %51 = add i64 %50, -1
  %or.cond33.not = icmp ult i64 %51, %44
  %52 = getelementptr inbounds nuw i8, ptr %0, i64 256
  br i1 %or.cond33.not, label %.critedge, label %62

.critedge:                                        ; preds = %getClientType.exit
  %53 = load i64, ptr %52, align 8, !tbaa !97
  %54 = icmp eq i64 %53, 0
  %55 = load atomic i64, ptr getelementptr inbounds nuw (i8, ptr @server, i64 7784) seq_cst, align 8, !tbaa !79
  br i1 %54, label %56, label %57

56:                                               ; preds = %.critedge
  store i64 %55, ptr %52, align 8, !tbaa !97
  br label %63

57:                                               ; preds = %.critedge
  %58 = load i64, ptr %52, align 8, !tbaa !97
  %59 = sub nsw i64 %55, %58
  %60 = getelementptr inbounds nuw i8, ptr %46, i64 16
  %61 = load i64, ptr %60, align 8, !tbaa !267
  %.not31 = icmp sgt i64 %59, %61
  br label %63

62:                                               ; preds = %getClientType.exit
  store i64 0, ptr %52, align 8, !tbaa !97
  br label %63

63:                                               ; preds = %56, %57, %62
  %.2 = phi i1 [ false, %56 ], [ %.not31, %57 ], [ false, %62 ]
  %64 = icmp eq i32 %43, 1
  %65 = icmp ne i64 %47, 0
  %or.cond = select i1 %64, i1 %65, i1 false
  %spec.select = tail call i64 @llvm.smax.i64(i64 %47, i64 %48)
  %.022 = select i1 %or.cond, i64 %spec.select, i64 %47
  %.not27 = icmp uge i64 %44, %.022
  %or.cond32.not = select i1 %65, i1 %.not27, i1 false
  %66 = or i1 %or.cond32.not, %.2
  %67 = zext i1 %66 to i32
  ret i32 %67
}